Certificate:
    Data:
        Version: 3 (0x2)
        Serial Number: 5 (0x5)
        Signature Algorithm: sha256WithRSAEncryption
        Issuer: C=US, ST=California, L=Mountain View, O=Symantec Cloud Security, OU=Site Reliability Engineering, CN=*.elastica.net/emailAddress=postmaster@elastica-devmon.com
        Validity
            Not Before: Apr 14 22:05:05 2017 GMT
            Not After : Apr 12 22:05:05 2027 GMT
        Subject: C=US, ST=CA, L=MountainView, O=Elastica, CN=mgwhealthchecker@elastica-devmon.com
        Subject Public Key Info:
            Public Key Algorithm: rsaEncryption
            RSA Public Key: (2048 bit)
                Modulus (2048 bit):
                    00:d6:d8:00:eb:8e:69:35:b2:e6:1f:50:0b:55:88:
                    ed:a4:05:21:b4:aa:7e:bc:4c:5b:2c:3c:e3:c8:8b:
                    e0:9e:dc:ad:de:6c:5f:73:05:6a:94:68:0d:6f:de:
                    a9:06:c0:ff:ad:92:ed:05:46:e9:7b:e0:87:34:eb:
                    07:3a:c4:bf:d3:69:36:99:88:28:aa:cf:79:a3:89:
                    2e:9c:f5:63:0c:dc:15:32:51:d1:8b:a8:56:94:d1:
                    6f:b4:25:b7:04:8d:42:65:a8:7b:22:96:08:41:0f:
                    56:a6:06:5f:c6:6a:13:ec:63:8a:ae:47:13:8d:a3:
                    20:e5:ec:d8:72:9f:6d:db:c4:56:b6:01:d7:01:72:
                    fd:22:fe:d8:74:36:6c:fc:62:ca:2c:51:d7:0e:de:
                    cc:88:44:50:40:f6:3d:92:41:3b:79:8b:cc:da:bf:
                    2a:83:a5:93:cc:40:0d:55:24:48:85:04:02:71:34:
                    e8:9f:54:67:5a:18:3c:0b:e7:94:22:01:14:e1:0e:
                    86:14:51:80:a1:43:65:a9:7b:fa:1a:26:1c:94:2d:
                    23:e6:9b:87:a0:fc:43:b8:b2:d0:d2:67:3f:64:73:
                    d5:41:dc:a4:89:c9:1f:6d:29:03:e6:4e:a1:f3:8a:
                    8a:8c:7d:f0:98:46:06:4b:01:d3:0c:7c:f1:68:64:
                    6f:33
                Exponent: 65537 (0x10001)
        X509v3 extensions:
            X509v3 Subject Key Identifier: 
                E9:2D:97:98:72:10:C0:CB:04:42:E1:77:29:98:9D:6B:FE:CC:D8:BC
            X509v3 Authority Key Identifier: 
                keyid:D5:D6:F4:F6:9E:0B:B9:8D:D8:49:34:0B:78:E8:3C:A0:0E:42:8F:B4

            X509v3 Basic Constraints: 
                CA:FALSE
            X509v3 Key Usage: 
                Digital Signature, Key Encipherment
            Netscape Comment: 
                OpenSSL Generated Certificate
            X509v3 Subject Alternative Name: 
                IP Address:52.77.230.3, IP Address:54.169.105.187, IP Address:54.169.1.207, IP Address:54.193.91.248, IP Address:54.183.202.35, IP Address:52.53.187.65, IP Address:54.153.125.70, IP Address:54.67.72.251, IP Address:54.183.176.122, IP Address:54.183.246.28, IP Address:54.153.74.158, IP Address:52.53.234.241, IP Address:54.215.221.150, IP Address:52.41.124.52, IP Address:52.37.139.68, IP Address:52.43.146.158, IP Address:54.201.208.109, IP Address:34.208.255.250, IP Address:52.89.8.67, IP Address:52.42.19.73, IP Address:52.43.75.88, IP Address:52.88.58.18, IP Address:54.200.215.131, IP Address:54.201.142.17
    Signature Algorithm: sha256WithRSAEncryption
        a6:6c:8d:c5:ec:e8:3c:77:ef:25:a7:c1:46:04:d1:ac:ff:37:
        0c:e1:99:d0:90:c9:db:65:6d:cc:c1:66:e6:fd:ba:4c:17:99:
        a1:02:dc:85:3a:14:76:d8:f1:3f:7b:8e:da:d0:57:b4:41:ca:
        28:eb:0b:b1:3c:c7:f8:f8:ad:af:5b:f4:d3:3e:a4:fa:23:a6:
        ff:5b:2a:ef:22:a5:f7:f7:4e:68:ab:9d:3a:ba:8f:97:34:72:
        44:fd:fd:2e:cd:e3:88:dc:13:48:0b:31:f1:6f:75:e9:dc:bb:
        ca:24:a1:f8:fe:f3:37:81:35:6a:45:c6:cf:bc:de:7b:26:49:
        e0:10:c7:97:51:9e:b9:22:9b:30:db:fe:84:69:5b:cf:29:7f:
        08:be:40:54:1b:dd:52:19:09:f4:4a:79:22:bd:72:47:37:81:
        13:78:32:1b:dd:e8:73:4a:8e:65:ce:5b:83:a3:89:f6:c0:72:
        bf:12:3d:25:04:b7:fe:9e:fd:62:0f:01:37:ad:d4:a0:04:ae:
        ee:b7:f0:c5:ef:29:63:5d:1d:4b:af:01:f4:c4:65:97:e2:57:
        64:2b:b7:81:b0:ab:64:6c:bd:03:5d:d7:ea:5a:19:1b:ce:16:
        a5:e9:1a:22:b5:52:29:d1:cc:91:57:bf:dd:8a:18:3f:00:e7:
        67:2b:0c:20:df:19:99:9e:b8:3a:65:d8:d5:8c:46:f6:2f:1d:
        3a:f7:88:e8:36:de:d8:2f:4a:55:23:69:b1:74:6c:4e:01:b1:
        47:7a:fc:45:02:c1:c9:21:1d:e7:de:35:d8:15:fd:d4:ef:0e:
        fa:69:a6:8d:66:3a:f3:a5:99:25:bf:90:8e:59:00:99:5b:b6:
        94:14:7e:3a:cc:6d:c0:89:2b:d9:ce:6a:ba:0a:1c:47:84:5f:
        f0:c1:06:2d:b3:0d:93:94:f7:95:60:fa:e8:93:a1:ad:4d:93:
        24:9b:33:3f:a1:7c:79:ab:10:58:8c:bb:28:7e:d9:76:13:fc:
        54:c7:71:ab:c0:ff:a5:c2:bc:75:73:98:ee:5e:a7:28:ac:e0:
        a3:9e:c4:23:2c:f2:6d:91:a3:a7:27:a0:40:1a:3d:e4:8d:4c:
        ea:fb:96:09:0e:39:74:7a:df:97:53:04:29:ab:97:ed:fc:40:
        74:c7:7c:f3:9a:6e:42:af:76:b2:6d:13:42:f4:d4:b5:ca:b8:
        e4:37:e1:ef:13:90:3e:57:ce:2d:e8:b9:82:85:5b:d3:b5:f6:
        e9:d1:8c:39:90:a8:b8:e8:1c:85:06:ae:f3:02:dd:85:6b:c9:
        62:26:6c:7e:17:ce:62:d4:ac:ca:d2:4e:69:f3:eb:81:d9:9d:
        40:65:06:6f:90:76:8e:a4
-----BEGIN CERTIFICATE-----
MIIF5DCCA8ygAwIBAgIBBTANBgkqhkiG9w0BAQsFADCByzELMAkGA1UEBhMCVVMx
EzARBgNVBAgMCkNhbGlmb3JuaWExFjAUBgNVBAcMDU1vdW50YWluIFZpZXcxIDAe
BgNVBAoMF1N5bWFudGVjIENsb3VkIFNlY3VyaXR5MSUwIwYDVQQLDBxTaXRlIFJl
bGlhYmlsaXR5IEVuZ2luZWVyaW5nMRcwFQYDVQQDDA4qLmVsYXN0aWNhLm5ldDEt
MCsGCSqGSIb3DQEJARYecG9zdG1hc3RlckBlbGFzdGljYS1kZXZtb24uY29tMB4X
DTE3MDQxNDIyMDUwNVoXDTI3MDQxMjIyMDUwNVowczELMAkGA1UEBhMCVVMxCzAJ
BgNVBAgMAkNBMRUwEwYDVQQHDAxNb3VudGFpblZpZXcxETAPBgNVBAoMCEVsYXN0
aWNhMS0wKwYDVQQDDCRtZ3doZWFsdGhjaGVja2VyQGVsYXN0aWNhLWRldm1vbi5j
b20wggEiMA0GCSqGSIb3DQEBAQUAA4IBDwAwggEKAoIBAQDW2ADrjmk1suYfUAtV
iO2kBSG0qn68TFssPOPIi+Ce3K3ebF9zBWqUaA1v3qkGwP+tku0FRul74Ic06wc6
xL/TaTaZiCiqz3mjiS6c9WMM3BUyUdGLqFaU0W+0JbcEjUJlqHsilghBD1amBl/G
ahPsY4quRxONoyDl7Nhyn23bxFa2AdcBcv0i/th0Nmz8YsosUdcO3syIRFBA9j2S
QTt5i8zavyqDpZPMQA1VJEiFBAJxNOifVGdaGDwL55QiARThDoYUUYChQ2Wpe/oa
JhyULSPmm4eg/EO4stDSZz9kc9VB3KSJyR9tKQPmTqHzioqMffCYRgZLAdMMfPFo
ZG8zAgMBAAGjggEoMIIBJDAdBgNVHQ4EFgQU6S2XmHIQwMsEQuF3KZida/7M2Lww
HwYDVR0jBBgwFoAU1db09p4LuY3YSTQLeOg8oA5Cj7QwCQYDVR0TBAIwADALBgNV
HQ8EBAMCBaAwLAYJYIZIAYb4QgENBB8WHU9wZW5TU0wgR2VuZXJhdGVkIENlcnRp
ZmljYXRlMIGbBgNVHREEgZMwgZCHBDRN5gOHBDapabuHBDapAc+HBDbBW/iHBDa3
yiOHBDQ1u0GHBDaZfUaHBDZDSPuHBDa3sHqHBDa39hyHBDaZSp6HBDQ16vGHBDbX
3ZaHBDQpfDSHBDQli0SHBDQrkp6HBDbJ0G2HBCLQ//qHBDRZCEOHBDQqE0mHBDQr
S1iHBDRYOhKHBDbI14OHBDbJjhEwDQYJKoZIhvcNAQELBQADggIBAKZsjcXs6Dx3
7yWnwUYE0az/NwzhmdCQydtlbczBZub9ukwXmaEC3IU6FHbY8T97jtrQV7RByijr
C7E8x/j4ra9b9NM+pPojpv9bKu8ipff3TmirnTq6j5c0ckT9/S7N44jcE0gLMfFv
dencu8okofj+8zeBNWpFxs+83nsmSeAQx5dRnrkimzDb/oRpW88pfwi+QFQb3VIZ
CfRKeSK9ckc3gRN4Mhvd6HNKjmXOW4OjifbAcr8SPSUEt/6e/WIPATet1KAEru63
8MXvKWNdHUuvAfTEZZfiV2Qrt4Gwq2RsvQNd1+paGRvOFqXpGiK1UinRzJFXv92K
GD8A52crDCDfGZmeuDpl2NWMRvYvHTr3iOg23tgvSlUjabF0bE4BsUd6/EUCwckh
HefeNdgV/dTvDvpppo1mOvOlmSW/kI5ZAJlbtpQUfjrMbcCJK9nOaroKHEeEX/DB
Bi2zDZOU95Vg+uiToa1NkySbMz+hfHmrEFiMuyh+2XYT/FTHcavA/6XCvHVzmO5e
pyis4KOexCMs8m2Ro6cnoEAaPeSNTOr7lgkOOXR635dTBCmrl+38QHTHfPOabkKv
drJtE0L01LXKuOQ34e8TkD5Xzi3ouYKFW9O19unRjDmQqLjoHIUGrvMC3YVryWIm
bH4XzmLUrMrSTmnz64HZnUBlBm+Qdo6k
-----END CERTIFICATE-----
