Certificate:
    Data:
        Version: 3 (0x2)
        Serial Number: 4 (0x4)
        Signature Algorithm: sha256WithRSAEncryption
        Issuer: C=US, ST=California, L=Mountain View, O=Symantec Cloud Security, OU=Site Reliability Engineering, CN=admin@elastica-devmon.com/emailAddress=postmaster@elastica-devmon.com
        Validity
            Not Before: Mar  8 23:58:07 2017 GMT
            Not After : Mar  6 23:58:07 2027 GMT
        Subject: C=US, ST=CA, L=MountainView, O=Elastica, CN=mgwhealthchecker@elastica-devmon.com
        Subject Public Key Info:
            Public Key Algorithm: rsaEncryption
            RSA Public Key: (2048 bit)
                Modulus (2048 bit):
                    00:eb:8c:fe:eb:ca:08:36:56:b5:e5:dd:55:35:90:
                    1a:ae:64:db:b6:a3:7d:e2:c8:7c:3c:26:b3:ed:d2:
                    a6:9b:de:ca:00:e3:46:92:54:6d:be:8b:52:66:c8:
                    39:49:e6:cf:cf:7e:54:97:30:33:37:f5:45:ab:61:
                    1d:bd:4e:e8:ac:04:8b:45:39:ba:55:8a:f7:7d:05:
                    b0:29:7b:36:02:b3:3c:e3:c3:c8:8f:9a:04:9e:59:
                    5a:7e:fe:7a:0a:99:ea:78:08:de:66:79:43:b5:0e:
                    bf:c8:fe:1d:ae:d6:0a:e9:b4:29:14:d6:d3:78:ff:
                    de:1d:b5:cc:0d:90:92:fc:19:88:82:06:88:58:bf:
                    5f:ee:fc:ec:1b:3d:b3:3d:f6:65:ff:f4:9d:ac:a2:
                    73:0c:72:87:7a:c0:56:62:bd:30:eb:f3:d5:33:d1:
                    83:f7:09:c3:9c:10:86:1c:8d:fe:36:f0:dd:5d:9c:
                    23:0d:92:fd:84:e1:71:78:53:7c:57:4c:9a:b2:95:
                    e8:8b:da:ec:42:57:b8:21:7f:f4:1e:95:20:42:1c:
                    f0:b9:c1:0e:16:b6:19:b3:9f:bd:ec:28:9b:b5:b7:
                    da:42:1b:91:a6:01:60:95:74:d7:bc:b8:43:cb:61:
                    57:cf:36:33:99:9b:a6:27:74:da:33:d7:8b:07:4b:
                    cb:65
                Exponent: 65537 (0x10001)
        X509v3 extensions:
            X509v3 Subject Key Identifier: 
                EA:D8:3E:D9:7C:65:92:F8:CC:AA:DA:6A:35:83:03:65:68:98:5D:8B
            X509v3 Authority Key Identifier: 
                keyid:D0:17:E4:C3:6B:D9:68:8F:A1:E0:AF:64:76:2F:79:71:79:B0:50:FA

            X509v3 Basic Constraints: 
                CA:FALSE
            X509v3 Key Usage: 
                Digital Signature, Key Encipherment
            Netscape Comment: 
                OpenSSL Generated Certificate
    Signature Algorithm: sha256WithRSAEncryption
        89:1d:b9:68:d5:50:1a:ae:18:8b:6a:a0:ad:9e:65:e7:10:0b:
        f8:57:b5:1f:71:b4:3c:2a:bb:85:e6:49:31:93:35:9a:a4:14:
        e1:25:a9:67:2a:53:fd:ad:a5:7f:0a:46:4c:e1:8b:da:f6:19:
        58:11:5d:18:1a:0a:60:31:d0:7e:92:28:73:3f:ef:89:e5:84:
        71:c9:61:b7:42:c9:11:67:2a:2d:7b:f3:55:b0:a1:c4:4e:22:
        0c:3a:6c:83:85:fe:a3:91:dc:52:ba:9f:9d:73:53:17:f4:ff:
        06:a3:1f:3b:30:bb:63:9c:e0:19:2d:d8:a6:7a:e2:bb:dc:17:
        f0:7e:d9:f8:f8:40:d1:56:2c:dd:64:94:4c:dd:03:22:5b:05:
        7f:2c:19:fc:86:6a:39:26:57:dc:e3:69:85:dd:69:a1:6f:17:
        66:c9:b4:29:e1:ff:34:69:17:eb:1e:40:5b:22:8e:48:03:7b:
        21:16:5d:c1:2d:d7:2b:d1:3c:e4:04:9a:19:73:f9:fc:cc:03:
        24:ed:2b:b4:66:f3:23:d3:6d:cd:08:f1:84:f7:f9:53:65:4f:
        68:27:aa:87:fa:ec:1f:f8:d4:0a:d6:9d:be:cb:25:11:c0:fb:
        13:23:3c:13:d1:fd:a8:8c:88:c1:ec:2b:39:e2:cd:98:54:05:
        f6:99:5d:70:8c:42:8b:98:f9:b5:80:ec:f4:b5:77:99:d3:79:
        ac:64:15:75:07:42:24:91:be:0d:ae:b7:53:07:41:9b:53:30:
        1a:3e:26:b2:11:3b:51:5f:de:22:92:db:0b:1c:f4:8b:b1:12:
        63:8c:3b:1a:0d:c9:d6:7d:a7:cb:07:5b:96:16:dd:5d:5e:64:
        15:10:06:ca:56:73:92:79:c2:26:3a:d4:fb:ab:d0:e4:66:ea:
        6e:5b:3f:1e:75:ba:21:4a:24:45:7f:85:25:14:21:91:17:de:
        dd:9a:aa:c0:29:b8:54:5f:33:55:fe:4b:01:86:ab:e5:05:48:
        4f:86:d4:48:5f:3d:98:cd:9e:d2:4a:dd:89:98:d8:4c:46:72:
        b4:cd:8c:03:d5:80:eb:13:dd:5b:e0:85:fc:d6:ac:ec:a2:31:
        5a:10:78:ca:c9:8b:f3:f3:b0:6a:b1:cc:da:69:12:1b:2e:14:
        ec:8c:e3:cf:05:13:a8:24:bd:07:0d:3f:ba:8f:72:bd:91:da:
        0a:7a:64:49:3a:07:ec:b2:b2:97:28:ba:d0:ff:18:f4:e1:58:
        f7:8d:3f:e0:17:3b:02:9c:67:ca:00:82:c1:d3:6c:32:aa:a5:
        eb:b4:25:19:cc:e8:88:5a:16:24:8e:f4:3e:22:80:e4:cf:11:
        e0:71:fa:7a:8d:27:21:8f
-----BEGIN CERTIFICATE-----
MIIFTzCCAzegAwIBAgIBBDANBgkqhkiG9w0BAQsFADCB1jELMAkGA1UEBhMCVVMx
EzARBgNVBAgMCkNhbGlmb3JuaWExFjAUBgNVBAcMDU1vdW50YWluIFZpZXcxIDAe
BgNVBAoMF1N5bWFudGVjIENsb3VkIFNlY3VyaXR5MSUwIwYDVQQLDBxTaXRlIFJl
bGlhYmlsaXR5IEVuZ2luZWVyaW5nMSIwIAYDVQQDDBlhZG1pbkBlbGFzdGljYS1k
ZXZtb24uY29tMS0wKwYJKoZIhvcNAQkBFh5wb3N0bWFzdGVyQGVsYXN0aWNhLWRl
dm1vbi5jb20wHhcNMTcwMzA4MjM1ODA3WhcNMjcwMzA2MjM1ODA3WjBzMQswCQYD
VQQGEwJVUzELMAkGA1UECAwCQ0ExFTATBgNVBAcMDE1vdW50YWluVmlldzERMA8G
A1UECgwIRWxhc3RpY2ExLTArBgNVBAMMJG1nd2hlYWx0aGNoZWNrZXJAZWxhc3Rp
Y2EtZGV2bW9uLmNvbTCCASIwDQYJKoZIhvcNAQEBBQADggEPADCCAQoCggEBAOuM
/uvKCDZWteXdVTWQGq5k27ajfeLIfDwms+3SppveygDjRpJUbb6LUmbIOUnmz89+
VJcwMzf1RathHb1O6KwEi0U5ulWK930FsCl7NgKzPOPDyI+aBJ5ZWn7+egqZ6ngI
3mZ5Q7UOv8j+Ha7WCum0KRTW03j/3h21zA2QkvwZiIIGiFi/X+787Bs9sz32Zf/0
nayicwxyh3rAVmK9MOvz1TPRg/cJw5wQhhyN/jbw3V2cIw2S/YThcXhTfFdMmrKV
6Iva7EJXuCF/9B6VIEIc8LnBDha2GbOfvewom7W32kIbkaYBYJV017y4Q8thV882
M5mbpid02jPXiwdLy2UCAwEAAaOBiTCBhjAdBgNVHQ4EFgQU6tg+2XxlkvjMqtpq
NYMDZWiYXYswHwYDVR0jBBgwFoAU0Bfkw2vZaI+h4K9kdi95cXmwUPowCQYDVR0T
BAIwADALBgNVHQ8EBAMCBaAwLAYJYIZIAYb4QgENBB8WHU9wZW5TU0wgR2VuZXJh
dGVkIENlcnRpZmljYXRlMA0GCSqGSIb3DQEBCwUAA4ICAQCJHblo1VAarhiLaqCt
nmXnEAv4V7UfcbQ8KruF5kkxkzWapBThJalnKlP9raV/CkZM4Yva9hlYEV0YGgpg
MdB+kihzP++J5YRxyWG3QskRZyote/NVsKHETiIMOmyDhf6jkdxSup+dc1MX9P8G
ox87MLtjnOAZLdimeuK73Bfwftn4+EDRVizdZJRM3QMiWwV/LBn8hmo5Jlfc42mF
3WmhbxdmybQp4f80aRfrHkBbIo5IA3shFl3BLdcr0TzkBJoZc/n8zAMk7Su0ZvMj
023NCPGE9/lTZU9oJ6qH+uwf+NQK1p2+yyURwPsTIzwT0f2ojIjB7Cs54s2YVAX2
mV1wjEKLmPm1gOz0tXeZ03msZBV1B0Ikkb4NrrdTB0GbUzAaPiayETtRX94iktsL
HPSLsRJjjDsaDcnWfafLB1uWFt1dXmQVEAbKVnOSecImOtT7q9DkZupuWz8edboh
SiRFf4UlFCGRF97dmqrAKbhUXzNV/ksBhqvlBUhPhtRIXz2YzZ7SSt2JmNhMRnK0
zYwD1YDrE91b4IX81qzsojFaEHjKyYvz87BqsczaaRIbLhTsjOPPBROoJL0HDT+6
j3K9kdoKemRJOgfssrKXKLrQ/xj04Vj3jT/gFzsCnGfKAILB02wyqqXrtCUZzOiI
WhYkjvQ+IoDkzxHgcfp6jSchjw==
-----END CERTIFICATE-----
